target datalayout = "e-m:e-p270:32:32-p271:32:32-p272:64:64-i64:64-i128:128-f80:128-n8:16:32:64-S128"
target triple = "x86_64-unknown-linux-gnu"

@perfmap = internal global ptr null, align 8
@.str.6 = private unnamed_addr constant [29 x i8] c"%lx %zx tcg-prologue-buffer\0A\00", align 1

; Function Attrs: nounwind sspstrong uwtable
define dso_local void @perf_report_prologue(ptr noundef %start, i64 noundef %size) #0 {
entry:
  %start.addr = alloca ptr, align 8
  %size.addr = alloca i64, align 8
  store ptr %start, ptr %start.addr, align 8
  store i64 %size, ptr %size.addr, align 8
  %0 = load ptr, ptr @perfmap, align 8
  %tobool = icmp ne ptr %0, null
  br i1 %tobool, label %if.then, label %if.end

if.then:                                          ; preds = %entry
  %1 = load ptr, ptr @perfmap, align 8
  %2 = load ptr, ptr %start.addr, align 8
  %3 = ptrtoint ptr %2 to i64
  %4 = load i64, ptr %size.addr, align 8
  %call = call i32 (ptr, ptr, ...) @fprintf(ptr noundef %1, ptr noundef @.str.6, i64 noundef %3, i64 noundef %4)
  br label %if.end

if.end:                                           ; preds = %if.then, %entry
  ret void
}