; Function Attrs: nofree nounwind sspstrong uwtable
define dso_local void @perf_report_prologue(ptr noundef %start, i64 noundef %size) local_unnamed_addr #5 {
entry:
  %0 = load ptr, ptr @perfmap, align 8
  %tobool.not = icmp eq ptr %0, null
  br i1 %tobool.not, label %if.end, label %if.then

if.then:                                          ; preds = %entry
  %1 = ptrtoint ptr %start to i64
  %call = tail call i32 (ptr, ptr, ...) @fprintf(ptr noundef nonnull %0, ptr noundef nonnull @.str.6, i64 noundef %1, i64 noundef %size)
  br label %if.end

if.end:                                           ; preds = %if.then, %entry
  ret void
}